target datalayout = "e-m:e-p270:32:32-p271:32:32-p272:64:64-i64:64-i128:128-f80:128-n8:16:32:64-S128"
target triple = "x86_64-pc-linux-gnu"

%"struct.duckdb_zstd::ZSTD_bounds" = type { i64, i32, i32 }

; Function Attrs: mustprogress nounwind uwtable
define { i64, i64 } @_ZN11duckdb_zstd21ZSTD_dParam_getBoundsENS_15ZSTD_dParameterE(i32 noundef %0) #2 {
  %2 = alloca %"struct.duckdb_zstd::ZSTD_bounds", align 8
  %3 = alloca i32, align 4
  store i32 %0, ptr %3, align 4, !tbaa !133
  call void @llvm.memset.p0.i64(ptr align 8 %2, i8 0, i64 16, i1 false)
  %4 = load i32, ptr %3, align 4, !tbaa !133
  switch i32 %4, label %26 [
    i32 100, label %5
    i32 1000, label %8
    i32 1001, label %11
    i32 1002, label %14
    i32 1003, label %17
    i32 1004, label %20
    i32 1005, label %23
  ]

5:                                                ; preds = %1
  %6 = getelementptr inbounds nuw %"struct.duckdb_zstd::ZSTD_bounds", ptr %2, i32 0, i32 1
  store i32 10, ptr %6, align 8, !tbaa !129
  %7 = getelementptr inbounds nuw %"struct.duckdb_zstd::ZSTD_bounds", ptr %2, i32 0, i32 2
  store i32 31, ptr %7, align 4, !tbaa !131
  br label %29

8:                                                ; preds = %1
  %9 = getelementptr inbounds nuw %"struct.duckdb_zstd::ZSTD_bounds", ptr %2, i32 0, i32 1
  store i32 0, ptr %9, align 8, !tbaa !129
  %10 = getelementptr inbounds nuw %"struct.duckdb_zstd::ZSTD_bounds", ptr %2, i32 0, i32 2
  store i32 1, ptr %10, align 4, !tbaa !131
  br label %29

11:                                               ; preds = %1
  %12 = getelementptr inbounds nuw %"struct.duckdb_zstd::ZSTD_bounds", ptr %2, i32 0, i32 1
  store i32 0, ptr %12, align 8, !tbaa !129
  %13 = getelementptr inbounds nuw %"struct.duckdb_zstd::ZSTD_bounds", ptr %2, i32 0, i32 2
  store i32 1, ptr %13, align 4, !tbaa !131
  br label %29

14:                                               ; preds = %1
  %15 = getelementptr inbounds nuw %"struct.duckdb_zstd::ZSTD_bounds", ptr %2, i32 0, i32 1
  store i32 0, ptr %15, align 8, !tbaa !129
  %16 = getelementptr inbounds nuw %"struct.duckdb_zstd::ZSTD_bounds", ptr %2, i32 0, i32 2
  store i32 1, ptr %16, align 4, !tbaa !131
  br label %29

17:                                               ; preds = %1
  %18 = getelementptr inbounds nuw %"struct.duckdb_zstd::ZSTD_bounds", ptr %2, i32 0, i32 1
  store i32 0, ptr %18, align 8, !tbaa !129
  %19 = getelementptr inbounds nuw %"struct.duckdb_zstd::ZSTD_bounds", ptr %2, i32 0, i32 2
  store i32 1, ptr %19, align 4, !tbaa !131
  br label %29

20:                                               ; preds = %1
  %21 = getelementptr inbounds nuw %"struct.duckdb_zstd::ZSTD_bounds", ptr %2, i32 0, i32 1
  store i32 0, ptr %21, align 8, !tbaa !129
  %22 = getelementptr inbounds nuw %"struct.duckdb_zstd::ZSTD_bounds", ptr %2, i32 0, i32 2
  store i32 1, ptr %22, align 4, !tbaa !131
  br label %29

23:                                               ; preds = %1
  %24 = getelementptr inbounds nuw %"struct.duckdb_zstd::ZSTD_bounds", ptr %2, i32 0, i32 1
  store i32 1024, ptr %24, align 8, !tbaa !129
  %25 = getelementptr inbounds nuw %"struct.duckdb_zstd::ZSTD_bounds", ptr %2, i32 0, i32 2
  store i32 131072, ptr %25, align 4, !tbaa !131
  br label %29

26:                                               ; preds = %1
  br label %27

27:                                               ; preds = %26
  %28 = getelementptr inbounds nuw %"struct.duckdb_zstd::ZSTD_bounds", ptr %2, i32 0, i32 0
  store i64 -40, ptr %28, align 8, !tbaa !135
  br label %29

29:                                               ; preds = %27, %23, %20, %17, %14, %11, %8, %5
  %30 = load { i64, i64 }, ptr %2, align 8
  ret { i64, i64 } %30
}